(dp1
S'133762'
p2
(lp3
g2
aS'494896'
p4
aS'347473'
p5
asS'715192'
p6
(lp7
g6
asS'347473'
p8
(lp9
S'347473'
p10
aS'890468'
p11
aS'494896'
p12
aS'133762'
p13
aS'133762'
p14
asS'705542'
p15
(lp16
g15
aS'494896'
p17
asS'557679'
p18
(lp19
g18
aS'494896'
p20
asS'449647'
p21
(lp22
g21
aS'494896'
p23
asS'494896'
p24
(lp25
g24
aS'347473'
p26
aS'133762'
p27
aS'557679'
p28
aS'705542'
p29
aS'449647'
p30
asS'187026'
p31
(lp32
g31
as.